
rv64ui-p-mv:     file format elf64-littleriscv


Disassembly of section .text.init:

0000000080000000 <_start>:
    80000000:	0500006f          	j	80000050 <reset_vector>

0000000080000004 <trap_vector>:
    80000004:	34202f73          	csrr	t5,mcause
    80000008:	00800f93          	li	t6,8
    8000000c:	03ff0863          	beq	t5,t6,8000003c <write_tohost>
    80000010:	00900f93          	li	t6,9
    80000014:	03ff0463          	beq	t5,t6,8000003c <write_tohost>
    80000018:	00b00f93          	li	t6,11
    8000001c:	03ff0063          	beq	t5,t6,8000003c <write_tohost>
    80000020:	00000f13          	li	t5,0
    80000024:	000f0463          	beqz	t5,8000002c <trap_vector+0x28>
    80000028:	000f0067          	jr	t5
    8000002c:	34202f73          	csrr	t5,mcause
    80000030:	000f5463          	bgez	t5,80000038 <handle_exception>
    80000034:	0040006f          	j	80000038 <handle_exception>

0000000080000038 <handle_exception>:
    80000038:	5391e193          	ori	gp,gp,1337

000000008000003c <write_tohost>:
    8000003c:	00001f17          	auipc	t5,0x1
    80000040:	fc3f2223          	sw	gp,-60(t5) # 80001000 <tohost>
    80000044:	00001f17          	auipc	t5,0x1
    80000048:	fc0f2023          	sw	zero,-64(t5) # 80001004 <tohost+0x4>
    8000004c:	ff1ff06f          	j	8000003c <write_tohost>

0000000080000050 <reset_vector>:
    80000050:	00000093          	li	ra,0
    80000054:	00000113          	li	sp,0
    80000058:	00000193          	li	gp,0
    8000005c:	00000213          	li	tp,0
    80000060:	00000293          	li	t0,0
    80000064:	00000313          	li	t1,0
    80000068:	00000393          	li	t2,0
    8000006c:	00000413          	li	s0,0
    80000070:	00000493          	li	s1,0
    80000074:	00000513          	li	a0,0
    80000078:	00000593          	li	a1,0
    8000007c:	00000613          	li	a2,0
    80000080:	00000693          	li	a3,0
    80000084:	00000713          	li	a4,0
    80000088:	00000793          	li	a5,0
    8000008c:	00000813          	li	a6,0
    80000090:	00000893          	li	a7,0
    80000094:	00000913          	li	s2,0
    80000098:	00000993          	li	s3,0
    8000009c:	00000a13          	li	s4,0
    800000a0:	00000a93          	li	s5,0
    800000a4:	00000b13          	li	s6,0
    800000a8:	00000b93          	li	s7,0
    800000ac:	00000c13          	li	s8,0
    800000b0:	00000c93          	li	s9,0
    800000b4:	00000d13          	li	s10,0
    800000b8:	00000d93          	li	s11,0
    800000bc:	00000e13          	li	t3,0
    800000c0:	00000e93          	li	t4,0
    800000c4:	00000f13          	li	t5,0
    800000c8:	00000f93          	li	t6,0
    800000cc:	f1402573          	csrr	a0,mhartid
    800000d0:	00051063          	bnez	a0,800000d0 <reset_vector+0x80>
    800000d4:	00000297          	auipc	t0,0x0
    800000d8:	01028293          	addi	t0,t0,16 # 800000e4 <reset_vector+0x94>
    800000dc:	30529073          	csrw	mtvec,t0
    800000e0:	74445073          	csrwi	0x744,8
    800000e4:	00000297          	auipc	t0,0x0
    800000e8:	01028293          	addi	t0,t0,16 # 800000f4 <reset_vector+0xa4>
    800000ec:	30529073          	csrw	mtvec,t0
    800000f0:	18005073          	csrwi	satp,0
    800000f4:	00000297          	auipc	t0,0x0
    800000f8:	02428293          	addi	t0,t0,36 # 80000118 <reset_vector+0xc8>
    800000fc:	30529073          	csrw	mtvec,t0
    80000100:	0010029b          	addiw	t0,zero,1
    80000104:	03529293          	slli	t0,t0,0x35
    80000108:	fff28293          	addi	t0,t0,-1
    8000010c:	3b029073          	csrw	pmpaddr0,t0
    80000110:	01f00293          	li	t0,31
    80000114:	3a029073          	csrw	pmpcfg0,t0
    80000118:	30405073          	csrwi	mie,0
    8000011c:	00000297          	auipc	t0,0x0
    80000120:	01428293          	addi	t0,t0,20 # 80000130 <reset_vector+0xe0>
    80000124:	30529073          	csrw	mtvec,t0
    80000128:	30205073          	csrwi	medeleg,0
    8000012c:	30305073          	csrwi	mideleg,0
    80000130:	00000193          	li	gp,0
    80000134:	00000297          	auipc	t0,0x0
    80000138:	ed028293          	addi	t0,t0,-304 # 80000004 <trap_vector>
    8000013c:	30529073          	csrw	mtvec,t0
    80000140:	00100513          	li	a0,1
    80000144:	01f51513          	slli	a0,a0,0x1f
    80000148:	00055c63          	bgez	a0,80000160 <reset_vector+0x110>
    8000014c:	0ff0000f          	fence
    80000150:	00100193          	li	gp,1
    80000154:	05d00893          	li	a7,93
    80000158:	00000513          	li	a0,0
    8000015c:	00000073          	ecall
    80000160:	00000293          	li	t0,0
    80000164:	00028a63          	beqz	t0,80000178 <reset_vector+0x128>
    80000168:	10529073          	csrw	stvec,t0
    8000016c:	0000b2b7          	lui	t0,0xb
    80000170:	1092829b          	addiw	t0,t0,265 # b109 <_start-0x7fff4ef7>
    80000174:	30229073          	csrw	medeleg,t0
    80000178:	30005073          	csrwi	mstatus,0
    8000017c:	00002297          	auipc	t0,0x2
    80000180:	e8428293          	addi	t0,t0,-380 # 80002000 <test_1>
    80000184:	34129073          	csrw	mepc,t0
    80000188:	f1402573          	csrr	a0,mhartid
    8000018c:	30200073          	mret
    80000190:	0000                	.insn	2, 0x
    80000192:	0000                	.insn	2, 0x
    80000194:	0000                	.insn	2, 0x
    80000196:	0000                	.insn	2, 0x
    80000198:	0000                	.insn	2, 0x
    8000019a:	0000                	.insn	2, 0x
    8000019c:	0000                	.insn	2, 0x
    8000019e:	0000                	.insn	2, 0x
    800001a0:	0000                	.insn	2, 0x
    800001a2:	0000                	.insn	2, 0x
    800001a4:	0000                	.insn	2, 0x
    800001a6:	0000                	.insn	2, 0x
    800001a8:	0000                	.insn	2, 0x
    800001aa:	0000                	.insn	2, 0x
    800001ac:	0000                	.insn	2, 0x
    800001ae:	0000                	.insn	2, 0x
    800001b0:	0000                	.insn	2, 0x
    800001b2:	0000                	.insn	2, 0x
    800001b4:	0000                	.insn	2, 0x
    800001b6:	0000                	.insn	2, 0x
    800001b8:	0000                	.insn	2, 0x
    800001ba:	0000                	.insn	2, 0x

Disassembly of section .text:

0000000080002000 <test_1>:
    80002000:	00001097          	auipc	ra,0x1
    80002004:	00008093          	mv	ra,ra
    80002008:	0000b083          	ld	ra,0(ra) # 80003000 <begin_signature>
    8000200c:	00008113          	mv	sp,ra
    80002010:	00813703          	ld	a4,8(sp)
    80002014:	feadd3b7          	lui	t2,0xfeadd
    80002018:	aff3839b          	addiw	t2,t2,-1281 # fffffffffeadcaff <_end+0xffffffff7ead9acf>
    8000201c:	00c39393          	slli	t2,t2,0xc
    80002020:	deb38393          	addi	t2,t2,-533
    80002024:	00c39393          	slli	t2,t2,0xc
    80002028:	dcb38393          	addi	t2,t2,-565
    8000202c:	00c39393          	slli	t2,t2,0xc
    80002030:	fed38393          	addi	t2,t2,-19
    80002034:	00100193          	li	gp,1
    80002038:	0e771c63          	bne	a4,t2,80002130 <fail>

000000008000203c <test_2>:
    8000203c:	00001097          	auipc	ra,0x1
    80002040:	fc408093          	addi	ra,ra,-60 # 80003000 <begin_signature>
    80002044:	0000b083          	ld	ra,0(ra)
    80002048:	0080b683          	ld	a3,8(ra)
    8000204c:	feadd3b7          	lui	t2,0xfeadd
    80002050:	aff3839b          	addiw	t2,t2,-1281 # fffffffffeadcaff <_end+0xffffffff7ead9acf>
    80002054:	00c39393          	slli	t2,t2,0xc
    80002058:	deb38393          	addi	t2,t2,-533
    8000205c:	00c39393          	slli	t2,t2,0xc
    80002060:	dcb38393          	addi	t2,t2,-565
    80002064:	00c39393          	slli	t2,t2,0xc
    80002068:	fed38393          	addi	t2,t2,-19
    8000206c:	00200193          	li	gp,2
    80002070:	0c769063          	bne	a3,t2,80002130 <fail>

0000000080002074 <test_3>:
    80002074:	00001097          	auipc	ra,0x1
    80002078:	f8c08093          	addi	ra,ra,-116 # 80003000 <begin_signature>
    8000207c:	0000b083          	ld	ra,0(ra)
    80002080:	00008113          	mv	sp,ra
    80002084:	00010093          	mv	ra,sp
    80002088:	00008113          	mv	sp,ra
    8000208c:	00813683          	ld	a3,8(sp)
    80002090:	feadd3b7          	lui	t2,0xfeadd
    80002094:	aff3839b          	addiw	t2,t2,-1281 # fffffffffeadcaff <_end+0xffffffff7ead9acf>
    80002098:	00c39393          	slli	t2,t2,0xc
    8000209c:	deb38393          	addi	t2,t2,-533
    800020a0:	00c39393          	slli	t2,t2,0xc
    800020a4:	dcb38393          	addi	t2,t2,-565
    800020a8:	00c39393          	slli	t2,t2,0xc
    800020ac:	fed38393          	addi	t2,t2,-19
    800020b0:	00300193          	li	gp,3
    800020b4:	06769e63          	bne	a3,t2,80002130 <fail>

00000000800020b8 <test_4>:
    800020b8:	00001097          	auipc	ra,0x1
    800020bc:	f4808093          	addi	ra,ra,-184 # 80003000 <begin_signature>
    800020c0:	0000b083          	ld	ra,0(ra)
    800020c4:	00008113          	mv	sp,ra
    800020c8:	00010093          	mv	ra,sp
    800020cc:	00008113          	mv	sp,ra
    800020d0:	00010093          	mv	ra,sp
    800020d4:	00008113          	mv	sp,ra
    800020d8:	00010093          	mv	ra,sp
    800020dc:	00008113          	mv	sp,ra
    800020e0:	00010093          	mv	ra,sp
    800020e4:	00008113          	mv	sp,ra
    800020e8:	00010093          	mv	ra,sp
    800020ec:	00008113          	mv	sp,ra
    800020f0:	00010093          	mv	ra,sp
    800020f4:	00008113          	mv	sp,ra
    800020f8:	00010093          	mv	ra,sp
    800020fc:	00008113          	mv	sp,ra
    80002100:	00813683          	ld	a3,8(sp)
    80002104:	feadd3b7          	lui	t2,0xfeadd
    80002108:	aff3839b          	addiw	t2,t2,-1281 # fffffffffeadcaff <_end+0xffffffff7ead9acf>
    8000210c:	00c39393          	slli	t2,t2,0xc
    80002110:	deb38393          	addi	t2,t2,-533
    80002114:	00c39393          	slli	t2,t2,0xc
    80002118:	dcb38393          	addi	t2,t2,-565
    8000211c:	00c39393          	slli	t2,t2,0xc
    80002120:	fed38393          	addi	t2,t2,-19
    80002124:	00400193          	li	gp,4
    80002128:	00769463          	bne	a3,t2,80002130 <fail>
    8000212c:	02301063          	bne	zero,gp,8000214c <pass>

0000000080002130 <fail>:
    80002130:	0ff0000f          	fence
    80002134:	00018063          	beqz	gp,80002134 <fail+0x4>
    80002138:	00119193          	slli	gp,gp,0x1
    8000213c:	0011e193          	ori	gp,gp,1
    80002140:	05d00893          	li	a7,93
    80002144:	00018513          	mv	a0,gp
    80002148:	00000073          	ecall

000000008000214c <pass>:
    8000214c:	0ff0000f          	fence
    80002150:	00100193          	li	gp,1
    80002154:	05d00893          	li	a7,93
    80002158:	00000513          	li	a0,0
    8000215c:	00000073          	ecall
    80002160:	c0001073          	unimp
